; Function Attrs: mustprogress uwtable
define hidden void @_ZN2pb6solver15convert_pb_argsEP3appR7svectorIN3sat7literalEjE(ptr noundef nonnull readonly align 8 captures(none) dereferenceable(1049) %0, ptr noundef readonly captures(address) %1, ptr noundef nonnull align 8 dereferenceable(8) %2) local_unnamed_addr #3 align 2 {
  %4 = getelementptr inbounds nuw i8, ptr %1, i64 24
  %5 = load i32, ptr %4, align 8, !tbaa !100
  %6 = zext i32 %5 to i64
  %.idx = shl nuw nsw i64 %6, 3
  %7 = getelementptr inbounds nuw i8, ptr %1, i64 %.idx
  %.ptr13 = getelementptr inbounds nuw i8, ptr %7, i64 32
  %.not11 = icmp eq i32 %5, 0
  br i1 %.not11, label %._crit_edge, label %.lr.ph

.lr.ph:                                           ; preds = %3
  %.ptr = getelementptr inbounds nuw i8, ptr %1, i64 32
  %8 = getelementptr inbounds nuw i8, ptr %0, i64 88
  %9 = getelementptr inbounds nuw i8, ptr %0, i64 24
  br label %10

._crit_edge:                                      ; preds = %_ZN6vectorIN3sat7literalELb0EjE4backEv.exit, %3
  ret void

10:                                               ; preds = %.lr.ph, %_ZN6vectorIN3sat7literalELb0EjE4backEv.exit
  %.012 = phi ptr [ %.ptr, %.lr.ph ], [ %37, %_ZN6vectorIN3sat7literalELb0EjE4backEv.exit ]
  %11 = load ptr, ptr %.012, align 8, !tbaa !101
  %12 = load ptr, ptr %8, align 8, !tbaa !95
  %13 = load ptr, ptr %12, align 8, !tbaa !3
  %14 = getelementptr inbounds nuw i8, ptr %13, i64 24
  %15 = load ptr, ptr %14, align 8
  %16 = tail call i32 %15(ptr noundef nonnull align 8 dereferenceable(8) %12, ptr noundef %11)
  %17 = load ptr, ptr %2, align 8, !tbaa !99
  %18 = icmp eq ptr %17, null
  br i1 %18, label %25, label %19

19:                                               ; preds = %10
  %20 = getelementptr inbounds i8, ptr %17, i64 -4
  %21 = load i32, ptr %20, align 4, !tbaa !103
  %22 = getelementptr inbounds i8, ptr %17, i64 -8
  %23 = load i32, ptr %22, align 4, !tbaa !103
  %24 = icmp eq i32 %21, %23
  br i1 %24, label %25, label %_ZN6vectorIN3sat7literalELb0EjE4backEv.exit

25:                                               ; preds = %19, %10
  tail call void @_ZN6vectorIN3sat7literalELb0EjE13expand_vectorEv(ptr noundef nonnull align 8 dereferenceable(8) %2)
  %.pre.i = load ptr, ptr %2, align 8, !tbaa !99
  %.phi.trans.insert.i = getelementptr inbounds i8, ptr %.pre.i, i64 -4
  %.pre2.i = load i32, ptr %.phi.trans.insert.i, align 4, !tbaa !103
  br label %_ZN6vectorIN3sat7literalELb0EjE4backEv.exit

_ZN6vectorIN3sat7literalELb0EjE4backEv.exit:      ; preds = %19, %25
  %26 = phi i32 [ %.pre2.i, %25 ], [ %21, %19 ]
  %27 = phi ptr [ %.pre.i, %25 ], [ %17, %19 ]
  %28 = getelementptr inbounds i8, ptr %27, i64 -4
  %29 = zext i32 %26 to i64
  %30 = getelementptr inbounds nuw %"class.sat::literal", ptr %27, i64 %29
  store i32 %16, ptr %30, align 4, !tbaa !103
  %31 = add i32 %26, 1
  store i32 %31, ptr %28, align 4, !tbaa !103
  %32 = load ptr, ptr %9, align 8, !tbaa !104
  %33 = lshr i32 %16, 1
  %34 = load ptr, ptr %32, align 8, !tbaa !3
  %35 = getelementptr inbounds nuw i8, ptr %34, i64 32
  %36 = load ptr, ptr %35, align 8
  tail call void %36(ptr noundef nonnull align 8 dereferenceable(4264) %32, i32 noundef %33)
  %37 = getelementptr inbounds nuw i8, ptr %.012, i64 8
  %.not = icmp eq ptr %37, %.ptr13
  br i1 %.not, label %._crit_edge, label %10
}